; ModuleID = 'source-C-CXX/11/1379.cpp'
source_filename = "source-C-CXX/11/1379.cpp"
target datalayout = "e-m:e-p270:32:32-p271:32:32-p272:64:64-i64:64-f80:128-n8:16:32:64-S128"
target triple = "x86_64-pc-linux-gnu"

%"class.std::ios_base::Init" = type { i8 }
%"class.std::basic_istream" = type { i32 (...)**, i64, %"class.std::basic_ios" }
%"class.std::basic_ios" = type { %"class.std::ios_base", %"class.std::basic_ostream"*, i8, i8, %"class.std::basic_streambuf"*, %"class.std::ctype"*, %"class.std::num_put"*, %"class.std::num_get"* }
%"class.std::ios_base" = type { i32 (...)**, i64, i64, i32, i32, i32, %"struct.std::ios_base::_Callback_list"*, %"struct.std::ios_base::_Words", [8 x %"struct.std::ios_base::_Words"], i32, %"struct.std::ios_base::_Words"*, %"class.std::locale" }
%"struct.std::ios_base::_Callback_list" = type { %"struct.std::ios_base::_Callback_list"*, void (i32, %"class.std::ios_base"*, i32)*, i32, i32 }
%"struct.std::ios_base::_Words" = type { i8*, i64 }
%"class.std::locale" = type { %"class.std::locale::_Impl"* }
%"class.std::locale::_Impl" = type { i32, %"class.std::locale::facet"**, i64, %"class.std::locale::facet"**, i8** }
%"class.std::locale::facet" = type <{ i32 (...)**, i32, [4 x i8] }>
%"class.std::basic_ostream" = type { i32 (...)**, %"class.std::basic_ios" }
%"class.std::basic_streambuf" = type { i32 (...)**, i8*, i8*, i8*, i8*, i8*, i8*, %"class.std::locale" }
%"class.std::ctype" = type <{ %"class.std::locale::facet.base", [4 x i8], %struct.__locale_struct*, i8, [7 x i8], i32*, i32*, i16*, i8, [256 x i8], [256 x i8], i8, [6 x i8] }>
%"class.std::locale::facet.base" = type <{ i32 (...)**, i32 }>
%struct.__locale_struct = type { [13 x %struct.__locale_data*], i16*, i32*, i32*, [13 x i8*] }
%struct.__locale_data = type opaque
%"class.std::num_put" = type { %"class.std::locale::facet.base", [4 x i8] }
%"class.std::num_get" = type { %"class.std::locale::facet.base", [4 x i8] }

@_ZStL8__ioinit = internal global %"class.std::ios_base::Init" zeroinitializer, align 1
@__dso_handle = external hidden global i8
@_ZSt3cin = external global %"class.std::basic_istream", align 8
@_ZSt4cout = external global %"class.std::basic_ostream", align 8
@llvm.global_ctors = appending global [1 x { i32, void ()*, i8* }] [{ i32, void ()*, i8* } { i32 65535, void ()* @_GLOBAL__sub_I_1379.cpp, i8* null }]

declare void @_ZNSt8ios_base4InitC1Ev(%"class.std::ios_base::Init"* nonnull align 1 dereferenceable(1)) unnamed_addr #0

; Function Attrs: nounwind
declare void @_ZNSt8ios_base4InitD1Ev(%"class.std::ios_base::Init"* nonnull align 1 dereferenceable(1)) unnamed_addr #1

; Function Attrs: nofree nounwind
declare i32 @__cxa_atexit(void (i8*)*, i8*, i8*) local_unnamed_addr #2

; Function Attrs: mustprogress norecurse sspstrong uwtable
define dso_local i32 @main() local_unnamed_addr #3 {
  %1 = alloca [20 x i32], align 16
  %2 = bitcast [20 x i32]* %1 to i8*
  call void @llvm.lifetime.start.p0i8(i64 80, i8* nonnull %2) #9
  %3 = getelementptr inbounds [20 x i32], [20 x i32]* %1, i64 0, i64 0
  %4 = call nonnull align 8 dereferenceable(16) %"class.std::basic_istream"* @_ZNSirsERi(%"class.std::basic_istream"* nonnull align 8 dereferenceable(16) @_ZSt3cin, i32* nonnull align 4 dereferenceable(4) %3)
  %5 = bitcast %"class.std::basic_istream"* %4 to i8**
  %6 = load i8*, i8** %5, align 8, !tbaa !5
  %7 = getelementptr i8, i8* %6, i64 -24
  %8 = bitcast i8* %7 to i64*
  %9 = load i64, i64* %8, align 8
  %10 = bitcast %"class.std::basic_istream"* %4 to i8*
  %11 = add nsw i64 %9, 32
  %12 = getelementptr inbounds i8, i8* %10, i64 %11
  %13 = bitcast i8* %12 to i32*
  %14 = load i32, i32* %13, align 8, !tbaa !8
  %15 = and i32 %14, 5
  %16 = icmp ne i32 %15, 0
  %17 = load i32, i32* %3, align 16
  %18 = icmp eq i32 %17, -1
  %19 = select i1 %16, i1 true, i1 %18
  br i1 %19, label %177, label %20

20:                                               ; preds = %0, %27
  %21 = phi i64 [ %28, %27 ], [ 1, %0 ]
  %22 = getelementptr inbounds [20 x i32], [20 x i32]* %1, i64 0, i64 %21
  %23 = call nonnull align 8 dereferenceable(16) %"class.std::basic_istream"* @_ZNSirsERi(%"class.std::basic_istream"* nonnull align 8 dereferenceable(16) @_ZSt3cin, i32* nonnull align 4 dereferenceable(4) %22)
  %24 = load i32, i32* %22, align 4, !tbaa !18
  %25 = icmp eq i32 %24, 0
  %26 = add nuw i64 %21, 1
  br i1 %25, label %29, label %27

27:                                               ; preds = %20, %157
  %28 = phi i64 [ %26, %20 ], [ 1, %157 ]
  br label %20, !llvm.loop !19

29:                                               ; preds = %20
  %30 = trunc i64 %21 to i32
  %31 = call i32 @llvm.umax.i32(i32 %30, i32 1)
  %32 = zext i32 %31 to i64
  %33 = and i64 %32, 4294967288
  %34 = add nsw i64 %33, -8
  %35 = lshr exact i64 %34, 3
  %36 = add nuw nsw i64 %35, 1
  %37 = icmp ult i32 %31, 8
  %38 = and i64 %32, 4294967288
  %39 = and i64 %36, 1
  %40 = icmp eq i64 %34, 0
  %41 = and i64 %36, 4611686018427387902
  %42 = icmp eq i64 %39, 0
  %43 = icmp eq i64 %38, %32
  br label %44

44:                                               ; preds = %29, %126
  %45 = phi i64 [ 0, %29 ], [ %128, %126 ]
  %46 = phi i32 [ 0, %29 ], [ %127, %126 ]
  %47 = getelementptr inbounds [20 x i32], [20 x i32]* %1, i64 0, i64 %45
  %48 = load i32, i32* %47, align 4, !tbaa !18
  %49 = shl nsw i32 %48, 1
  br i1 %37, label %113, label %50

50:                                               ; preds = %44
  %51 = insertelement <4 x i32> <i32 poison, i32 0, i32 0, i32 0>, i32 %46, i32 0
  %52 = insertelement <4 x i32> poison, i32 %49, i32 0
  %53 = shufflevector <4 x i32> %52, <4 x i32> poison, <4 x i32> zeroinitializer
  %54 = insertelement <4 x i32> poison, i32 %49, i32 0
  %55 = shufflevector <4 x i32> %54, <4 x i32> poison, <4 x i32> zeroinitializer
  br i1 %40, label %89, label %56

56:                                               ; preds = %50, %56
  %57 = phi i64 [ %86, %56 ], [ 0, %50 ]
  %58 = phi <4 x i32> [ %84, %56 ], [ %51, %50 ]
  %59 = phi <4 x i32> [ %85, %56 ], [ zeroinitializer, %50 ]
  %60 = phi i64 [ %87, %56 ], [ %41, %50 ]
  %61 = getelementptr inbounds [20 x i32], [20 x i32]* %1, i64 0, i64 %57
  %62 = bitcast i32* %61 to <4 x i32>*
  %63 = load <4 x i32>, <4 x i32>* %62, align 16, !tbaa !18
  %64 = getelementptr inbounds i32, i32* %61, i64 4
  %65 = bitcast i32* %64 to <4 x i32>*
  %66 = load <4 x i32>, <4 x i32>* %65, align 16, !tbaa !18
  %67 = icmp eq <4 x i32> %63, %53
  %68 = icmp eq <4 x i32> %66, %55
  %69 = zext <4 x i1> %67 to <4 x i32>
  %70 = zext <4 x i1> %68 to <4 x i32>
  %71 = add <4 x i32> %58, %69
  %72 = add <4 x i32> %59, %70
  %73 = or i64 %57, 8
  %74 = getelementptr inbounds [20 x i32], [20 x i32]* %1, i64 0, i64 %73
  %75 = bitcast i32* %74 to <4 x i32>*
  %76 = load <4 x i32>, <4 x i32>* %75, align 16, !tbaa !18
  %77 = getelementptr inbounds i32, i32* %74, i64 4
  %78 = bitcast i32* %77 to <4 x i32>*
  %79 = load <4 x i32>, <4 x i32>* %78, align 16, !tbaa !18
  %80 = icmp eq <4 x i32> %76, %53
  %81 = icmp eq <4 x i32> %79, %55
  %82 = zext <4 x i1> %80 to <4 x i32>
  %83 = zext <4 x i1> %81 to <4 x i32>
  %84 = add <4 x i32> %71, %82
  %85 = add <4 x i32> %72, %83
  %86 = add nuw i64 %57, 16
  %87 = add i64 %60, -2
  %88 = icmp eq i64 %87, 0
  br i1 %88, label %89, label %56, !llvm.loop !21

89:                                               ; preds = %56, %50
  %90 = phi <4 x i32> [ undef, %50 ], [ %84, %56 ]
  %91 = phi <4 x i32> [ undef, %50 ], [ %85, %56 ]
  %92 = phi i64 [ 0, %50 ], [ %86, %56 ]
  %93 = phi <4 x i32> [ %51, %50 ], [ %84, %56 ]
  %94 = phi <4 x i32> [ zeroinitializer, %50 ], [ %85, %56 ]
  br i1 %42, label %108, label %95

95:                                               ; preds = %89
  %96 = getelementptr inbounds [20 x i32], [20 x i32]* %1, i64 0, i64 %92
  %97 = getelementptr inbounds i32, i32* %96, i64 4
  %98 = bitcast i32* %97 to <4 x i32>*
  %99 = load <4 x i32>, <4 x i32>* %98, align 16, !tbaa !18
  %100 = icmp eq <4 x i32> %99, %55
  %101 = zext <4 x i1> %100 to <4 x i32>
  %102 = add <4 x i32> %94, %101
  %103 = bitcast i32* %96 to <4 x i32>*
  %104 = load <4 x i32>, <4 x i32>* %103, align 16, !tbaa !18
  %105 = icmp eq <4 x i32> %104, %53
  %106 = zext <4 x i1> %105 to <4 x i32>
  %107 = add <4 x i32> %93, %106
  br label %108

108:                                              ; preds = %89, %95
  %109 = phi <4 x i32> [ %90, %89 ], [ %107, %95 ]
  %110 = phi <4 x i32> [ %91, %89 ], [ %102, %95 ]
  %111 = add <4 x i32> %110, %109
  %112 = call i32 @llvm.vector.reduce.add.v4i32(<4 x i32> %111)
  br i1 %43, label %126, label %113

113:                                              ; preds = %44, %108
  %114 = phi i64 [ 0, %44 ], [ %38, %108 ]
  %115 = phi i32 [ %46, %44 ], [ %112, %108 ]
  br label %116

116:                                              ; preds = %113, %116
  %117 = phi i64 [ %124, %116 ], [ %114, %113 ]
  %118 = phi i32 [ %123, %116 ], [ %115, %113 ]
  %119 = getelementptr inbounds [20 x i32], [20 x i32]* %1, i64 0, i64 %117
  %120 = load i32, i32* %119, align 4, !tbaa !18
  %121 = icmp eq i32 %120, %49
  %122 = zext i1 %121 to i32
  %123 = add nsw i32 %118, %122
  %124 = add nuw nsw i64 %117, 1
  %125 = icmp eq i64 %124, %32
  br i1 %125, label %126, label %116, !llvm.loop !23

126:                                              ; preds = %116, %108
  %127 = phi i32 [ %112, %108 ], [ %123, %116 ]
  %128 = add nuw nsw i64 %45, 1
  %129 = icmp eq i64 %128, %32
  br i1 %129, label %130, label %44, !llvm.loop !25

130:                                              ; preds = %126
  %131 = call nonnull align 8 dereferenceable(8) %"class.std::basic_ostream"* @_ZNSolsEi(%"class.std::basic_ostream"* nonnull align 8 dereferenceable(8) @_ZSt4cout, i32 %127)
  %132 = bitcast %"class.std::basic_ostream"* %131 to i8**
  %133 = load i8*, i8** %132, align 8, !tbaa !5
  %134 = getelementptr i8, i8* %133, i64 -24
  %135 = bitcast i8* %134 to i64*
  %136 = load i64, i64* %135, align 8
  %137 = bitcast %"class.std::basic_ostream"* %131 to i8*
  %138 = add nsw i64 %136, 240
  %139 = getelementptr inbounds i8, i8* %137, i64 %138
  %140 = bitcast i8* %139 to %"class.std::ctype"**
  %141 = load %"class.std::ctype"*, %"class.std::ctype"** %140, align 8, !tbaa !26
  %142 = icmp eq %"class.std::ctype"* %141, null
  br i1 %142, label %143, label %144

143:                                              ; preds = %130
  call void @_ZSt16__throw_bad_castv() #10
  unreachable

144:                                              ; preds = %130
  %145 = getelementptr inbounds %"class.std::ctype", %"class.std::ctype"* %141, i64 0, i32 8
  %146 = load i8, i8* %145, align 8, !tbaa !29
  %147 = icmp eq i8 %146, 0
  br i1 %147, label %151, label %148

148:                                              ; preds = %144
  %149 = getelementptr inbounds %"class.std::ctype", %"class.std::ctype"* %141, i64 0, i32 9, i64 10
  %150 = load i8, i8* %149, align 1, !tbaa !31
  br label %157

151:                                              ; preds = %144
  call void @_ZNKSt5ctypeIcE13_M_widen_initEv(%"class.std::ctype"* nonnull align 8 dereferenceable(570) %141)
  %152 = bitcast %"class.std::ctype"* %141 to i8 (%"class.std::ctype"*, i8)***
  %153 = load i8 (%"class.std::ctype"*, i8)**, i8 (%"class.std::ctype"*, i8)*** %152, align 8, !tbaa !5
  %154 = getelementptr inbounds i8 (%"class.std::ctype"*, i8)*, i8 (%"class.std::ctype"*, i8)** %153, i64 6
  %155 = load i8 (%"class.std::ctype"*, i8)*, i8 (%"class.std::ctype"*, i8)** %154, align 8
  %156 = call signext i8 %155(%"class.std::ctype"* nonnull align 8 dereferenceable(570) %141, i8 signext 10)
  br label %157

157:                                              ; preds = %148, %151
  %158 = phi i8 [ %150, %148 ], [ %156, %151 ]
  %159 = call nonnull align 8 dereferenceable(8) %"class.std::basic_ostream"* @_ZNSo3putEc(%"class.std::basic_ostream"* nonnull align 8 dereferenceable(8) %131, i8 signext %158)
  %160 = call nonnull align 8 dereferenceable(8) %"class.std::basic_ostream"* @_ZNSo5flushEv(%"class.std::basic_ostream"* nonnull align 8 dereferenceable(8) %159)
  %161 = call nonnull align 8 dereferenceable(16) %"class.std::basic_istream"* @_ZNSirsERi(%"class.std::basic_istream"* nonnull align 8 dereferenceable(16) @_ZSt3cin, i32* nonnull align 4 dereferenceable(4) %3)
  %162 = bitcast %"class.std::basic_istream"* %161 to i8**
  %163 = load i8*, i8** %162, align 8, !tbaa !5
  %164 = getelementptr i8, i8* %163, i64 -24
  %165 = bitcast i8* %164 to i64*
  %166 = load i64, i64* %165, align 8
  %167 = bitcast %"class.std::basic_istream"* %161 to i8*
  %168 = add nsw i64 %166, 32
  %169 = getelementptr inbounds i8, i8* %167, i64 %168
  %170 = bitcast i8* %169 to i32*
  %171 = load i32, i32* %170, align 8, !tbaa !8
  %172 = and i32 %171, 5
  %173 = icmp ne i32 %172, 0
  %174 = load i32, i32* %3, align 16
  %175 = icmp eq i32 %174, -1
  %176 = select i1 %173, i1 true, i1 %175
  br i1 %176, label %177, label %27

177:                                              ; preds = %157, %0
  call void @llvm.lifetime.end.p0i8(i64 80, i8* nonnull %2) #9
  ret i32 0
}

; Function Attrs: argmemonly mustprogress nofree nosync nounwind willreturn
declare void @llvm.lifetime.start.p0i8(i64 immarg, i8* nocapture) #4

declare nonnull align 8 dereferenceable(16) %"class.std::basic_istream"* @_ZNSirsERi(%"class.std::basic_istream"* nonnull align 8 dereferenceable(16), i32* nonnull align 4 dereferenceable(4)) local_unnamed_addr #0

declare nonnull align 8 dereferenceable(8) %"class.std::basic_ostream"* @_ZNSolsEi(%"class.std::basic_ostream"* nonnull align 8 dereferenceable(8), i32) local_unnamed_addr #0

; Function Attrs: argmemonly mustprogress nofree nosync nounwind willreturn
declare void @llvm.lifetime.end.p0i8(i64 immarg, i8* nocapture) #4

declare nonnull align 8 dereferenceable(8) %"class.std::basic_ostream"* @_ZNSo3putEc(%"class.std::basic_ostream"* nonnull align 8 dereferenceable(8), i8 signext) local_unnamed_addr #0

declare nonnull align 8 dereferenceable(8) %"class.std::basic_ostream"* @_ZNSo5flushEv(%"class.std::basic_ostream"* nonnull align 8 dereferenceable(8)) local_unnamed_addr #0

; Function Attrs: noreturn
declare void @_ZSt16__throw_bad_castv() local_unnamed_addr #5

declare void @_ZNKSt5ctypeIcE13_M_widen_initEv(%"class.std::ctype"* nonnull align 8 dereferenceable(570)) local_unnamed_addr #0

; Function Attrs: sspstrong uwtable
define internal void @_GLOBAL__sub_I_1379.cpp() #6 section ".text.startup" {
  tail call void @_ZNSt8ios_base4InitC1Ev(%"class.std::ios_base::Init"* nonnull align 1 dereferenceable(1) @_ZStL8__ioinit)
  %1 = tail call i32 @__cxa_atexit(void (i8*)* bitcast (void (%"class.std::ios_base::Init"*)* @_ZNSt8ios_base4InitD1Ev to void (i8*)*), i8* getelementptr inbounds (%"class.std::ios_base::Init", %"class.std::ios_base::Init"* @_ZStL8__ioinit, i64 0, i32 0), i8* nonnull @__dso_handle) #9
  ret void
}

; Function Attrs: nofree nosync nounwind readnone speculatable willreturn
declare i32 @llvm.umax.i32(i32, i32) #7

; Function Attrs: nofree nosync nounwind readnone willreturn
declare i32 @llvm.vector.reduce.add.v4i32(<4 x i32>) #8


!llvm.module.flags = !{!0, !1, !2, !3}
!llvm.ident = !{!4}

!0 = !{i32 1, !"wchar_size", i32 4}
!1 = !{i32 7, !"PIC Level", i32 2}
!2 = !{i32 7, !"PIE Level", i32 2}
!3 = !{i32 7, !"uwtable", i32 1}
!4 = !{!"clang version 13.0.0"}
!5 = !{!6, !6, i64 0}
!6 = !{!"vtable pointer", !7, i64 0}
!7 = !{!"Simple C++ TBAA"}
!8 = !{!9, !13, i64 32}
!9 = !{!"_ZTSSt8ios_base", !10, i64 8, !10, i64 16, !12, i64 24, !13, i64 28, !13, i64 32, !14, i64 40, !15, i64 48, !11, i64 64, !16, i64 192, !14, i64 200, !17, i64 208}
!10 = !{!"long", !11, i64 0}
!11 = !{!"omnipotent char", !7, i64 0}
!12 = !{!"_ZTSSt13_Ios_Fmtflags", !11, i64 0}
!13 = !{!"_ZTSSt12_Ios_Iostate", !11, i64 0}
!14 = !{!"any pointer", !11, i64 0}
!15 = !{!"_ZTSNSt8ios_base6_WordsE", !14, i64 0, !10, i64 8}
!16 = !{!"int", !11, i64 0}
!17 = !{!"_ZTSSt6locale", !14, i64 0}
!18 = !{!16, !16, i64 0}
!19 = distinct !{!19, !20}
!20 = !{!"llvm.loop.mustprogress"}
!21 = distinct !{!21, !20, !22}
!22 = !{!"llvm.loop.isvectorized", i32 1}
!23 = distinct !{!23, !20, !24, !22}
!24 = !{!"llvm.loop.unroll.runtime.disable"}
!25 = distinct !{!25, !20}
!26 = !{!27, !14, i64 240}
!27 = !{!"_ZTSSt9basic_iosIcSt11char_traitsIcEE", !14, i64 216, !11, i64 224, !28, i64 225, !14, i64 232, !14, i64 240, !14, i64 248, !14, i64 256}
!28 = !{!"bool", !11, i64 0}
!29 = !{!30, !11, i64 56}
!30 = !{!"_ZTSSt5ctypeIcE", !14, i64 16, !28, i64 24, !14, i64 32, !14, i64 40, !14, i64 48, !11, i64 56, !11, i64 57, !11, i64 313, !11, i64 569}
!31 = !{!11, !11, i64 0}
